target datalayout = "e-m:e-p270:32:32-p271:32:32-p272:64:64-i64:64-i128:128-f80:128-n8:16:32:64-S128"
target triple = "x86_64-pc-linux-gnu"

%struct.lua_State = type { ptr, i8, i8, i8, i8, i16, %union.StkIdRel, ptr, ptr, %union.StkIdRel, %union.StkIdRel, ptr, %union.StkIdRel, ptr, ptr, ptr, %struct.CallInfo, ptr, i64, i32, i32, i32, i32, i32, %struct.anon.3 }
%union.StkIdRel = type { ptr }
%struct.CallInfo = type { %union.StkIdRel, %union.StkIdRel, ptr, ptr, %union.anon, %union.anon.2, i32 }
%union.anon = type { %struct.anon.1 }
%struct.anon.1 = type { ptr, i64, i64 }
%union.anon.2 = type { i32 }
%struct.anon.3 = type { i32, i32 }
%struct.global_State = type { ptr, ptr, i64, i64, i64, i64, %struct.stringtable, %struct.TValue, %struct.TValue, i32, [6 x i8], i8, i8, i8, i8, i8, i8, ptr, ptr, ptr, ptr, ptr, ptr, ptr, ptr, ptr, ptr, ptr, ptr, ptr, ptr, ptr, ptr, ptr, ptr, ptr, ptr, ptr, [25 x ptr], [9 x ptr], [53 x [2 x ptr]], ptr, ptr }
%struct.stringtable = type { ptr, i32, i32 }
%struct.TValue = type { %union.Value, i8 }
%union.Value = type { ptr }
%struct.TString = type { ptr, i8, i8, i8, i8, i32, %union.anon.4, ptr, ptr, ptr }
%union.anon.4 = type { i64 }
%union.StackValue = type { %struct.TValue }

@.str = private unnamed_addr constant [24 x i8] c"error in error handling\00", align 1

; Function Attrs: nounwind uwtable
define hidden void @luaD_seterrorobj(ptr noundef %0, i32 noundef %1, ptr noundef %2) #0 {
  %4 = alloca ptr, align 8
  %5 = alloca i32, align 4
  %6 = alloca ptr, align 8
  %7 = alloca ptr, align 8
  %8 = alloca ptr, align 8
  %9 = alloca ptr, align 8
  %10 = alloca ptr, align 8
  %11 = alloca ptr, align 8
  %12 = alloca ptr, align 8
  store ptr %0, ptr %4, align 8, !tbaa !4
  store i32 %1, ptr %5, align 4, !tbaa !9
  store ptr %2, ptr %6, align 8, !tbaa !11
  %13 = load i32, ptr %5, align 4, !tbaa !9
  switch i32 %13, label %50 [
    i32 4, label %14
    i32 5, label %32
    i32 0, label %47
  ]

14:                                               ; preds = %3
  call void @llvm.lifetime.start.p0(i64 8, ptr %7) #11
  %15 = load ptr, ptr %6, align 8, !tbaa !11
  store ptr %15, ptr %7, align 8, !tbaa !13
  call void @llvm.lifetime.start.p0(i64 8, ptr %8) #11
  %16 = load ptr, ptr %4, align 8, !tbaa !4
  %17 = getelementptr inbounds nuw %struct.lua_State, ptr %16, i32 0, i32 7
  %18 = load ptr, ptr %17, align 8, !tbaa !15
  %19 = getelementptr inbounds nuw %struct.global_State, ptr %18, i32 0, i32 37
  %20 = load ptr, ptr %19, align 8, !tbaa !26
  store ptr %20, ptr %8, align 8, !tbaa !33
  %21 = load ptr, ptr %8, align 8, !tbaa !33
  %22 = load ptr, ptr %7, align 8, !tbaa !13
  %23 = getelementptr inbounds nuw %struct.TValue, ptr %22, i32 0, i32 0
  store ptr %21, ptr %23, align 8, !tbaa !34
  %24 = load ptr, ptr %8, align 8, !tbaa !33
  %25 = getelementptr inbounds nuw %struct.TString, ptr %24, i32 0, i32 1
  %26 = load i8, ptr %25, align 8, !tbaa !35
  %27 = zext i8 %26 to i32
  %28 = or i32 %27, 64
  %29 = trunc i32 %28 to i8
  %30 = load ptr, ptr %7, align 8, !tbaa !13
  %31 = getelementptr inbounds nuw %struct.TValue, ptr %30, i32 0, i32 1
  store i8 %29, ptr %31, align 8, !tbaa !38
  call void @llvm.lifetime.end.p0(i64 8, ptr %8) #11
  call void @llvm.lifetime.end.p0(i64 8, ptr %7) #11
  br label %65

32:                                               ; preds = %3
  call void @llvm.lifetime.start.p0(i64 8, ptr %9) #11
  %33 = load ptr, ptr %6, align 8, !tbaa !11
  store ptr %33, ptr %9, align 8, !tbaa !13
  call void @llvm.lifetime.start.p0(i64 8, ptr %10) #11
  %34 = load ptr, ptr %4, align 8, !tbaa !4
  %35 = call ptr @luaS_newlstr(ptr noundef %34, ptr noundef @.str, i64 noundef 23)
  store ptr %35, ptr %10, align 8, !tbaa !33
  %36 = load ptr, ptr %10, align 8, !tbaa !33
  %37 = load ptr, ptr %9, align 8, !tbaa !13
  %38 = getelementptr inbounds nuw %struct.TValue, ptr %37, i32 0, i32 0
  store ptr %36, ptr %38, align 8, !tbaa !34
  %39 = load ptr, ptr %10, align 8, !tbaa !33
  %40 = getelementptr inbounds nuw %struct.TString, ptr %39, i32 0, i32 1
  %41 = load i8, ptr %40, align 8, !tbaa !35
  %42 = zext i8 %41 to i32
  %43 = or i32 %42, 64
  %44 = trunc i32 %43 to i8
  %45 = load ptr, ptr %9, align 8, !tbaa !13
  %46 = getelementptr inbounds nuw %struct.TValue, ptr %45, i32 0, i32 1
  store i8 %44, ptr %46, align 8, !tbaa !38
  call void @llvm.lifetime.end.p0(i64 8, ptr %10) #11
  call void @llvm.lifetime.end.p0(i64 8, ptr %9) #11
  br label %65

47:                                               ; preds = %3
  %48 = load ptr, ptr %6, align 8, !tbaa !11
  %49 = getelementptr inbounds nuw %struct.TValue, ptr %48, i32 0, i32 1
  store i8 0, ptr %49, align 8, !tbaa !34
  br label %65

50:                                               ; preds = %3
  call void @llvm.lifetime.start.p0(i64 8, ptr %11) #11
  %51 = load ptr, ptr %6, align 8, !tbaa !11
  store ptr %51, ptr %11, align 8, !tbaa !13
  call void @llvm.lifetime.start.p0(i64 8, ptr %12) #11
  %52 = load ptr, ptr %4, align 8, !tbaa !4
  %53 = getelementptr inbounds nuw %struct.lua_State, ptr %52, i32 0, i32 6
  %54 = load ptr, ptr %53, align 8, !tbaa !34
  %55 = getelementptr inbounds %union.StackValue, ptr %54, i64 -1
  store ptr %55, ptr %12, align 8, !tbaa !13
  %56 = load ptr, ptr %11, align 8, !tbaa !13
  %57 = getelementptr inbounds nuw %struct.TValue, ptr %56, i32 0, i32 0
  %58 = load ptr, ptr %12, align 8, !tbaa !13
  %59 = getelementptr inbounds nuw %struct.TValue, ptr %58, i32 0, i32 0
  call void @llvm.memcpy.p0.p0.i64(ptr align 8 %57, ptr align 8 %59, i64 8, i1 false), !tbaa.struct !39
  %60 = load ptr, ptr %12, align 8, !tbaa !13
  %61 = getelementptr inbounds nuw %struct.TValue, ptr %60, i32 0, i32 1
  %62 = load i8, ptr %61, align 8, !tbaa !38
  %63 = load ptr, ptr %11, align 8, !tbaa !13
  %64 = getelementptr inbounds nuw %struct.TValue, ptr %63, i32 0, i32 1
  store i8 %62, ptr %64, align 8, !tbaa !38
  call void @llvm.lifetime.end.p0(i64 8, ptr %12) #11
  call void @llvm.lifetime.end.p0(i64 8, ptr %11) #11
  br label %65

65:                                               ; preds = %50, %47, %32, %14
  %66 = load ptr, ptr %6, align 8, !tbaa !11
  %67 = getelementptr inbounds %union.StackValue, ptr %66, i64 1
  %68 = load ptr, ptr %4, align 8, !tbaa !4
  %69 = getelementptr inbounds nuw %struct.lua_State, ptr %68, i32 0, i32 6
  store ptr %67, ptr %69, align 8, !tbaa !34
  ret void
}