; Function Attrs: nounwind uwtable
define hidden void @luaD_seterrorobj(ptr noundef %0, i32 noundef %1, ptr noundef initializes((8, 9)) %2) local_unnamed_addr #0 {
  switch i32 %1, label %17 [
    i32 4, label %4
    i32 5, label %12
    i32 0, label %24
  ]

4:                                                ; preds = %3
  %5 = getelementptr inbounds nuw i8, ptr %0, i64 24
  %6 = load ptr, ptr %5, align 8, !tbaa !4
  %7 = getelementptr inbounds nuw i8, ptr %6, i64 272
  %8 = load ptr, ptr %7, align 8, !tbaa !20
  store ptr %8, ptr %2, align 8, !tbaa !27
  %9 = getelementptr inbounds nuw i8, ptr %8, i64 8
  %10 = load i8, ptr %9, align 8, !tbaa !28
  %11 = or i8 %10, 64
  br label %24

12:                                               ; preds = %3
  %13 = tail call ptr @luaS_newlstr(ptr noundef %0, ptr noundef nonnull @.str, i64 noundef 23) #13
  store ptr %13, ptr %2, align 8, !tbaa !27
  %14 = getelementptr inbounds nuw i8, ptr %13, i64 8
  %15 = load i8, ptr %14, align 8, !tbaa !28
  %16 = or i8 %15, 64
  br label %24

17:                                               ; preds = %3
  %18 = getelementptr inbounds nuw i8, ptr %0, i64 16
  %19 = load ptr, ptr %18, align 8, !tbaa !27
  %20 = getelementptr inbounds i8, ptr %19, i64 -16
  %21 = load i64, ptr %20, align 8, !tbaa !27
  store i64 %21, ptr %2, align 8, !tbaa !27
  %22 = getelementptr inbounds i8, ptr %19, i64 -8
  %23 = load i8, ptr %22, align 8, !tbaa !31
  br label %24

24:                                               ; preds = %3, %17, %12, %4
  %.sink = phi i8 [ %23, %17 ], [ %16, %12 ], [ %11, %4 ], [ 0, %3 ]
  %25 = getelementptr inbounds nuw i8, ptr %2, i64 8
  store i8 %.sink, ptr %25, align 8, !tbaa !27
  %26 = getelementptr inbounds nuw i8, ptr %2, i64 16
  %27 = getelementptr inbounds nuw i8, ptr %0, i64 16
  store ptr %26, ptr %27, align 8, !tbaa !27
  ret void
}